target datalayout = "e-m:e-p270:32:32-p271:32:32-p272:64:64-i64:64-i128:128-f80:128-n8:16:32:64-S128"
target triple = "x86_64-pc-linux-gnu"

%struct.mbedtls_ecp_group = type { i32, %struct.mbedtls_mpi, %struct.mbedtls_mpi, %struct.mbedtls_mpi, %struct.mbedtls_ecp_point, %struct.mbedtls_mpi, i64, i64, i32, ptr, ptr, ptr, ptr, ptr, i64 }
%struct.mbedtls_ecp_point = type { %struct.mbedtls_mpi, %struct.mbedtls_mpi, %struct.mbedtls_mpi }
%struct.mbedtls_mpi = type { ptr, i16, i16 }

; Function Attrs: nounwind uwtable
define hidden i32 @mbedtls_ecp_get_type(ptr noundef %0) #0 {
  %2 = alloca i32, align 4
  %3 = alloca ptr, align 8
  store ptr %0, ptr %3, align 8, !tbaa !25
  %4 = load ptr, ptr %3, align 8, !tbaa !25
  %5 = getelementptr inbounds nuw %struct.mbedtls_ecp_group, ptr %4, i32 0, i32 4
  %6 = getelementptr inbounds nuw %struct.mbedtls_ecp_point, ptr %5, i32 0, i32 0
  %7 = getelementptr inbounds nuw %struct.mbedtls_mpi, ptr %6, i32 0, i32 0
  %8 = load ptr, ptr %7, align 8, !tbaa !27
  %9 = icmp eq ptr %8, null
  br i1 %9, label %10, label %11

10:                                               ; preds = %1
  store i32 0, ptr %2, align 4
  br label %20

11:                                               ; preds = %1
  %12 = load ptr, ptr %3, align 8, !tbaa !25
  %13 = getelementptr inbounds nuw %struct.mbedtls_ecp_group, ptr %12, i32 0, i32 4
  %14 = getelementptr inbounds nuw %struct.mbedtls_ecp_point, ptr %13, i32 0, i32 1
  %15 = getelementptr inbounds nuw %struct.mbedtls_mpi, ptr %14, i32 0, i32 0
  %16 = load ptr, ptr %15, align 8, !tbaa !33
  %17 = icmp eq ptr %16, null
  br i1 %17, label %18, label %19

18:                                               ; preds = %11
  store i32 2, ptr %2, align 4
  br label %20

19:                                               ; preds = %11
  store i32 1, ptr %2, align 4
  br label %20

20:                                               ; preds = %19, %18, %10
  %21 = load i32, ptr %2, align 4
  ret i32 %21
}

; Function Attrs: nounwind uwtable
define hidden i32 @mbedtls_ecp_check_privkey(ptr noundef %0, ptr noundef %1) #0 {
  %3 = alloca i32, align 4
  %4 = alloca ptr, align 8
  %5 = alloca ptr, align 8
  store ptr %0, ptr %4, align 8, !tbaa !25
  store ptr %1, ptr %5, align 8, !tbaa !50
  %6 = load ptr, ptr %4, align 8, !tbaa !25
  %7 = call i32 @mbedtls_ecp_get_type(ptr noundef %6)
  %8 = icmp eq i32 %7, 2
  br i1 %8, label %9, label %37

9:                                                ; preds = %2
  %10 = load ptr, ptr %5, align 8, !tbaa !50
  %11 = call i32 @mbedtls_mpi_get_bit(ptr noundef %10, i64 noundef 0)
  %12 = icmp ne i32 %11, 0
  br i1 %12, label %25, label %13

13:                                               ; preds = %9
  %14 = load ptr, ptr %5, align 8, !tbaa !50
  %15 = call i32 @mbedtls_mpi_get_bit(ptr noundef %14, i64 noundef 1)
  %16 = icmp ne i32 %15, 0
  br i1 %16, label %25, label %17

17:                                               ; preds = %13
  %18 = load ptr, ptr %5, align 8, !tbaa !50
  %19 = call i64 @mbedtls_mpi_bitlen(ptr noundef %18)
  %20 = sub i64 %19, 1
  %21 = load ptr, ptr %4, align 8, !tbaa !25
  %22 = getelementptr inbounds nuw %struct.mbedtls_ecp_group, ptr %21, i32 0, i32 7
  %23 = load i64, ptr %22, align 8, !tbaa !37
  %24 = icmp ne i64 %20, %23
  br i1 %24, label %25, label %26

25:                                               ; preds = %17, %13, %9
  store i32 -19584, ptr %3, align 4
  br label %54

26:                                               ; preds = %17
  %27 = load ptr, ptr %4, align 8, !tbaa !25
  %28 = getelementptr inbounds nuw %struct.mbedtls_ecp_group, ptr %27, i32 0, i32 7
  %29 = load i64, ptr %28, align 8, !tbaa !37
  %30 = icmp eq i64 %29, 254
  br i1 %30, label %31, label %36

31:                                               ; preds = %26
  %32 = load ptr, ptr %5, align 8, !tbaa !50
  %33 = call i32 @mbedtls_mpi_get_bit(ptr noundef %32, i64 noundef 2)
  %34 = icmp ne i32 %33, 0
  br i1 %34, label %35, label %36

35:                                               ; preds = %31
  store i32 -19584, ptr %3, align 4
  br label %54

36:                                               ; preds = %31, %26
  store i32 0, ptr %3, align 4
  br label %54

37:                                               ; preds = %2
  %38 = load ptr, ptr %4, align 8, !tbaa !25
  %39 = call i32 @mbedtls_ecp_get_type(ptr noundef %38)
  %40 = icmp eq i32 %39, 1
  br i1 %40, label %41, label %53

41:                                               ; preds = %37
  %42 = load ptr, ptr %5, align 8, !tbaa !50
  %43 = call i32 @mbedtls_mpi_cmp_int(ptr noundef %42, i64 noundef 1)
  %44 = icmp slt i32 %43, 0
  br i1 %44, label %51, label %45

45:                                               ; preds = %41
  %46 = load ptr, ptr %5, align 8, !tbaa !50
  %47 = load ptr, ptr %4, align 8, !tbaa !25
  %48 = getelementptr inbounds nuw %struct.mbedtls_ecp_group, ptr %47, i32 0, i32 5
  %49 = call i32 @mbedtls_mpi_cmp_mpi(ptr noundef %46, ptr noundef %48)
  %50 = icmp sge i32 %49, 0
  br i1 %50, label %51, label %52

51:                                               ; preds = %45, %41
  store i32 -19584, ptr %3, align 4
  br label %54

52:                                               ; preds = %45
  store i32 0, ptr %3, align 4
  br label %54

53:                                               ; preds = %37
  store i32 -20352, ptr %3, align 4
  br label %54

54:                                               ; preds = %53, %52, %51, %36, %35, %25
  %55 = load i32, ptr %3, align 4
  ret i32 %55
}