; Function Attrs: nounwind uwtable
define hidden range(i32 -20352, 1) i32 @mbedtls_ecp_check_privkey(ptr noundef %0, ptr noundef %1) local_unnamed_addr #7 {
  %3 = getelementptr inbounds nuw i8, ptr %0, i64 56
  %4 = load ptr, ptr %3, align 8, !tbaa !19
  %5 = icmp eq ptr %4, null
  br i1 %5, label %mbedtls_ecp_get_type.exit17.thread, label %6

6:                                                ; preds = %2
  %7 = getelementptr inbounds nuw i8, ptr %0, i64 72
  %8 = load ptr, ptr %7, align 8, !tbaa !26
  %9 = icmp eq ptr %8, null
  br i1 %9, label %mbedtls_ecp_get_type.exit, label %mbedtls_ecp_get_type.exit17

mbedtls_ecp_get_type.exit:                        ; preds = %6
  %10 = tail call i32 @mbedtls_mpi_get_bit(ptr noundef %1, i64 noundef 0) #21
  %.not = icmp eq i32 %10, 0
  br i1 %.not, label %11, label %mbedtls_ecp_get_type.exit17.thread

11:                                               ; preds = %mbedtls_ecp_get_type.exit
  %12 = tail call i32 @mbedtls_mpi_get_bit(ptr noundef %1, i64 noundef 1) #21
  %.not12 = icmp eq i32 %12, 0
  br i1 %.not12, label %13, label %mbedtls_ecp_get_type.exit17.thread

13:                                               ; preds = %11
  %14 = tail call i64 @mbedtls_mpi_bitlen(ptr noundef %1) #21
  %15 = add i64 %14, -1
  %16 = getelementptr inbounds nuw i8, ptr %0, i64 128
  %17 = load i64, ptr %16, align 8, !tbaa !38
  %.not13 = icmp eq i64 %15, %17
  br i1 %.not13, label %18, label %mbedtls_ecp_get_type.exit17.thread

18:                                               ; preds = %13
  %19 = icmp eq i64 %15, 254
  br i1 %19, label %20, label %22

20:                                               ; preds = %18
  %21 = tail call i32 @mbedtls_mpi_get_bit(ptr noundef %1, i64 noundef 2) #21
  %.not14 = icmp eq i32 %21, 0
  br i1 %.not14, label %22, label %mbedtls_ecp_get_type.exit17.thread

22:                                               ; preds = %20, %18
  br label %mbedtls_ecp_get_type.exit17.thread

mbedtls_ecp_get_type.exit17:                      ; preds = %6
  %23 = tail call i32 @mbedtls_mpi_cmp_int(ptr noundef %1, i64 noundef 1) #21
  %24 = icmp slt i32 %23, 0
  br i1 %24, label %mbedtls_ecp_get_type.exit17.thread, label %25

25:                                               ; preds = %mbedtls_ecp_get_type.exit17
  %26 = getelementptr inbounds nuw i8, ptr %0, i64 104
  %27 = tail call i32 @mbedtls_mpi_cmp_mpi(ptr noundef %1, ptr noundef nonnull %26) #21
  %.inv = icmp slt i32 %27, 0
  %spec.select = select i1 %.inv, i32 0, i32 -19584
  br label %mbedtls_ecp_get_type.exit17.thread

mbedtls_ecp_get_type.exit17.thread:               ; preds = %2, %25, %mbedtls_ecp_get_type.exit17, %20, %mbedtls_ecp_get_type.exit, %11, %13, %22
  %.0 = phi i32 [ 0, %22 ], [ -19584, %13 ], [ -19584, %11 ], [ -19584, %mbedtls_ecp_get_type.exit ], [ -19584, %20 ], [ -19584, %mbedtls_ecp_get_type.exit17 ], [ %spec.select, %25 ], [ -20352, %2 ]
  ret i32 %.0
}